; ModuleID = 'source-C-CXX/59/1437.c'
source_filename = "source-C-CXX/59/1437.c"
target datalayout = "e-m:e-p270:32:32-p271:32:32-p272:64:64-i64:64-f80:128-n8:16:32:64-S128"
target triple = "x86_64-pc-linux-gnu"

@.str = private unnamed_addr constant [3 x i8] c"%d\00", align 1
@.str.1 = private unnamed_addr constant [7 x i8] c"%d %d\0A\00", align 1
@.str.2 = private unnamed_addr constant [6 x i8] c"empty\00", align 1

; Function Attrs: nofree nounwind sspstrong uwtable
define dso_local i32 @main() local_unnamed_addr #0 {
  %1 = alloca i32, align 4
  %2 = bitcast i32* %1 to i8*
  call void @llvm.lifetime.start.p0i8(i64 4, i8* nonnull %2) #3
  %3 = call i32 (i8*, ...) @__isoc99_scanf(i8* getelementptr inbounds ([3 x i8], [3 x i8]* @.str, i64 0, i64 0), i32* nonnull %1)
  %4 = load i32, i32* %1, align 4, !tbaa !5
  %5 = icmp slt i32 %4, 4
  br i1 %5, label %40, label %6

6:                                                ; preds = %0, %32
  %7 = phi i32 [ %33, %32 ], [ %4, %0 ]
  %8 = phi i32 [ %36, %32 ], [ 4, %0 ]
  %9 = phi i32 [ %34, %32 ], [ 0, %0 ]
  %10 = phi i32 [ %35, %32 ], [ 2, %0 ]
  br label %11

11:                                               ; preds = %6, %21
  %12 = phi i32 [ %22, %21 ], [ 0, %6 ]
  %13 = phi i32 [ %23, %21 ], [ 2, %6 ]
  %14 = urem i32 %10, %13
  %15 = icmp eq i32 %14, 0
  br i1 %15, label %19, label %16

16:                                               ; preds = %11
  %17 = urem i32 %8, %13
  %18 = icmp eq i32 %17, 0
  br i1 %18, label %19, label %21

19:                                               ; preds = %16, %11
  %20 = add nsw i32 %12, 1
  br label %21

21:                                               ; preds = %16, %19
  %22 = phi i32 [ %20, %19 ], [ %12, %16 ]
  %23 = add nuw nsw i32 %13, 1
  %24 = mul nsw i32 %23, %23
  %25 = icmp ugt i32 %24, %8
  br i1 %25, label %26, label %11, !llvm.loop !9

26:                                               ; preds = %21
  %27 = icmp eq i32 %22, 0
  br i1 %27, label %28, label %32

28:                                               ; preds = %26
  %29 = call i32 (i8*, ...) @printf(i8* nonnull dereferenceable(1) getelementptr inbounds ([7 x i8], [7 x i8]* @.str.1, i64 0, i64 0), i32 %10, i32 %8)
  %30 = add nsw i32 %9, 1
  %31 = load i32, i32* %1, align 4, !tbaa !5
  br label %32

32:                                               ; preds = %28, %26
  %33 = phi i32 [ %31, %28 ], [ %7, %26 ]
  %34 = phi i32 [ %30, %28 ], [ %9, %26 ]
  %35 = add nuw nsw i32 %10, 1
  %36 = add nuw nsw i32 %10, 3
  %37 = icmp sgt i32 %36, %33
  br i1 %37, label %38, label %6, !llvm.loop !11

38:                                               ; preds = %32
  %39 = icmp eq i32 %34, 0
  br i1 %39, label %40, label %42

40:                                               ; preds = %0, %38
  %41 = call i32 (i8*, ...) @printf(i8* nonnull dereferenceable(1) getelementptr inbounds ([6 x i8], [6 x i8]* @.str.2, i64 0, i64 0))
  br label %42

42:                                               ; preds = %40, %38
  call void @llvm.lifetime.end.p0i8(i64 4, i8* nonnull %2) #3
  ret i32 0
}

; Function Attrs: argmemonly mustprogress nofree nosync nounwind willreturn
declare void @llvm.lifetime.start.p0i8(i64 immarg, i8* nocapture) #1

; Function Attrs: nofree nounwind
declare noundef i32 @__isoc99_scanf(i8* nocapture noundef readonly, ...) local_unnamed_addr #2

; Function Attrs: nofree nounwind
declare noundef i32 @printf(i8* nocapture noundef readonly, ...) local_unnamed_addr #2

; Function Attrs: argmemonly mustprogress nofree nosync nounwind willreturn
declare void @llvm.lifetime.end.p0i8(i64 immarg, i8* nocapture) #1


!llvm.module.flags = !{!0, !1, !2, !3}
!llvm.ident = !{!4}

!0 = !{i32 1, !"wchar_size", i32 4}
!1 = !{i32 7, !"PIC Level", i32 2}
!2 = !{i32 7, !"PIE Level", i32 2}
!3 = !{i32 7, !"uwtable", i32 1}
!4 = !{!"clang version 13.0.0"}
!5 = !{!6, !6, i64 0}
!6 = !{!"int", !7, i64 0}
!7 = !{!"omnipotent char", !8, i64 0}
!8 = !{!"Simple C/C++ TBAA"}
!9 = distinct !{!9, !10}
!10 = !{!"llvm.loop.mustprogress"}
!11 = distinct !{!11, !10}
